target datalayout = "e-m:e-p270:32:32-p271:32:32-p272:64:64-i64:64-i128:128-f80:128-n8:16:32:64-S128"
target triple = "x86_64-pc-linux-gnu"

%struct.hf_register_info = type { ptr, %struct._header_field_info }
%struct._header_field_info = type { ptr, ptr, i32, i32, ptr, i64, ptr, i32, i32, i32, i32, ptr }

@.str = private unnamed_addr constant [40 x i8] c"Locamation Interface Module CALIBRATION\00", align 1
@.str.1 = private unnamed_addr constant [12 x i8] c"CALIBRATION\00", align 1
@.str.2 = private unnamed_addr constant [26 x i8] c"locamation-im.calibration\00", align 1
@h_protocol_calibration = internal global i32 -1, align 4
@.str.3 = private unnamed_addr constant [34 x i8] c"Locamation Interface Module IDENT\00", align 1
@.str.4 = private unnamed_addr constant [6 x i8] c"IDENT\00", align 1
@.str.5 = private unnamed_addr constant [20 x i8] c"locamation-im.ident\00", align 1
@h_protocol_ident = internal global i32 -1, align 4
@.str.6 = private unnamed_addr constant [42 x i8] c"Locamation Interface Module SAMPLES - IM1\00", align 1
@.str.7 = private unnamed_addr constant [14 x i8] c"SAMPLES - IM1\00", align 1
@.str.8 = private unnamed_addr constant [26 x i8] c"locamation-im.samples.im1\00", align 1
@h_protocol_samples_im1 = internal global i32 -1, align 4
@.str.9 = private unnamed_addr constant [44 x i8] c"Locamation Interface Module SAMPLES - IM2R0\00", align 1
@.str.10 = private unnamed_addr constant [16 x i8] c"SAMPLES - IM2R0\00", align 1
@.str.11 = private unnamed_addr constant [28 x i8] c"locamation-im.samples.im2r0\00", align 1
@h_protocol_samples_im2r0 = internal global i32 -1, align 4
@.str.12 = private unnamed_addr constant [22 x i8] c"locamation-im.llc.pid\00", align 1
@.str.13 = private unnamed_addr constant [23 x i8] c"LLC Locamation OUI PID\00", align 1
@llc_registration = internal global [1 x %struct.hf_register_info] [%struct.hf_register_info { ptr @hf_llc_company_pid, %struct._header_field_info { ptr @.str.178, ptr @.str.12, i32 5, i32 2, ptr @company_pid_vals, i64 0, ptr @.str.179, i32 -1, i32 0, i32 0, i32 -1, ptr null } }], align 16

; Function Attrs: null_pointer_is_valid sspstrong uwtable
define hidden void @proto_register_locamation_im() #0 {
  %1 = alloca ptr, align 8
  %2 = alloca ptr, align 8
  %3 = alloca ptr, align 8
  call void @proto_register_subtree_array(ptr noundef @ett, i32 noundef 16)
  %4 = call i32 @proto_register_protocol(ptr noundef @.str, ptr noundef @.str.1, ptr noundef @.str.2)
  store i32 %4, ptr @h_protocol_calibration, align 4
  %5 = load i32, ptr @h_protocol_calibration, align 4
  call void @proto_register_field_array(i32 noundef %5, ptr noundef @protocol_registration_calibration, i32 noundef 7)
  call void @llvm.lifetime.start.p0(i64 8, ptr %1) #6
  %6 = load i32, ptr @h_protocol_calibration, align 4
  %7 = call ptr @expert_register_protocol(i32 noundef %6)
  store ptr %7, ptr %1, align 8
  %8 = load ptr, ptr %1, align 8
  call void @expert_register_field_array(ptr noundef %8, ptr noundef @ei_calibration, i32 noundef 1)
  %9 = call i32 @proto_register_protocol(ptr noundef @.str.3, ptr noundef @.str.4, ptr noundef @.str.5)
  store i32 %9, ptr @h_protocol_ident, align 4
  %10 = load i32, ptr @h_protocol_ident, align 4
  call void @proto_register_field_array(i32 noundef %10, ptr noundef @protocol_registration_ident, i32 noundef 2)
  %11 = call i32 @proto_register_protocol(ptr noundef @.str.6, ptr noundef @.str.7, ptr noundef @.str.8)
  store i32 %11, ptr @h_protocol_samples_im1, align 4
  %12 = load i32, ptr @h_protocol_samples_im1, align 4
  call void @proto_register_field_array(i32 noundef %12, ptr noundef @protocol_registration_samples, i32 noundef 45)
  call void @llvm.lifetime.start.p0(i64 8, ptr %2) #6
  %13 = load i32, ptr @h_protocol_samples_im1, align 4
  %14 = call ptr @expert_register_protocol(i32 noundef %13)
  store ptr %14, ptr %2, align 8
  %15 = load ptr, ptr %2, align 8
  call void @expert_register_field_array(ptr noundef %15, ptr noundef @ei_samples_im1, i32 noundef 8)
  %16 = call i32 @proto_register_protocol(ptr noundef @.str.9, ptr noundef @.str.10, ptr noundef @.str.11)
  store i32 %16, ptr @h_protocol_samples_im2r0, align 4
  %17 = load i32, ptr @h_protocol_samples_im2r0, align 4
  call void @proto_register_field_array(i32 noundef %17, ptr noundef @protocol_registration_samples_im2, i32 noundef 18)
  call void @llvm.lifetime.start.p0(i64 8, ptr %3) #6
  %18 = load i32, ptr @h_protocol_samples_im2r0, align 4
  %19 = call ptr @expert_register_protocol(i32 noundef %18)
  store ptr %19, ptr %3, align 8
  %20 = load ptr, ptr %3, align 8
  call void @expert_register_field_array(ptr noundef %20, ptr noundef @ei_samples_im2r0, i32 noundef 2)
  call void @llc_add_oui(i32 noundef 16598, ptr noundef @.str.12, ptr noundef @.str.13, ptr noundef @llc_registration, i32 noundef -1)
  call void @llvm.lifetime.end.p0(i64 8, ptr %3) #6
  call void @llvm.lifetime.end.p0(i64 8, ptr %2) #6
  call void @llvm.lifetime.end.p0(i64 8, ptr %1) #6
  ret void
}