; Function Attrs: null_pointer_is_valid sspstrong uwtable
define hidden void @proto_register_locamation_im() local_unnamed_addr #0 {
  tail call void @proto_register_subtree_array(ptr noundef nonnull @ett, i32 noundef 16)
  %1 = tail call i32 @proto_register_protocol(ptr noundef nonnull @.str, ptr noundef nonnull @.str.1, ptr noundef nonnull @.str.2)
  store i32 %1, ptr @h_protocol_calibration, align 4
  tail call void @proto_register_field_array(i32 noundef %1, ptr noundef nonnull @protocol_registration_calibration, i32 noundef 7)
  %2 = load i32, ptr @h_protocol_calibration, align 4
  %3 = tail call ptr @expert_register_protocol(i32 noundef %2)
  tail call void @expert_register_field_array(ptr noundef %3, ptr noundef nonnull @ei_calibration, i32 noundef 1)
  %4 = tail call i32 @proto_register_protocol(ptr noundef nonnull @.str.3, ptr noundef nonnull @.str.4, ptr noundef nonnull @.str.5)
  store i32 %4, ptr @h_protocol_ident, align 4
  tail call void @proto_register_field_array(i32 noundef %4, ptr noundef nonnull @protocol_registration_ident, i32 noundef 2)
  %5 = tail call i32 @proto_register_protocol(ptr noundef nonnull @.str.6, ptr noundef nonnull @.str.7, ptr noundef nonnull @.str.8)
  store i32 %5, ptr @h_protocol_samples_im1, align 4
  tail call void @proto_register_field_array(i32 noundef %5, ptr noundef nonnull @protocol_registration_samples, i32 noundef 45)
  %6 = load i32, ptr @h_protocol_samples_im1, align 4
  %7 = tail call ptr @expert_register_protocol(i32 noundef %6)
  tail call void @expert_register_field_array(ptr noundef %7, ptr noundef nonnull @ei_samples_im1, i32 noundef 8)
  %8 = tail call i32 @proto_register_protocol(ptr noundef nonnull @.str.9, ptr noundef nonnull @.str.10, ptr noundef nonnull @.str.11)
  store i32 %8, ptr @h_protocol_samples_im2r0, align 4
  tail call void @proto_register_field_array(i32 noundef %8, ptr noundef nonnull @protocol_registration_samples_im2, i32 noundef 18)
  %9 = load i32, ptr @h_protocol_samples_im2r0, align 4
  %10 = tail call ptr @expert_register_protocol(i32 noundef %9)
  tail call void @expert_register_field_array(ptr noundef %10, ptr noundef nonnull @ei_samples_im2r0, i32 noundef 2)
  tail call void @llc_add_oui(i32 noundef 16598, ptr noundef nonnull @.str.12, ptr noundef nonnull @.str.13, ptr noundef nonnull @llc_registration, i32 noundef -1)
  ret void
}